target datalayout = "e-m:e-p270:32:32-p271:32:32-p272:64:64-i64:64-i128:128-f80:128-n8:16:32:64-S128"
target triple = "x86_64-pc-linux-gnu"

%"class.sat::literal" = type { i32 }
%"class.pb::card" = type { %"class.pb::constraint", [0 x %"class.sat::literal"] }
%"class.pb::constraint" = type { ptr, i32, i8, %"class.sat::literal", %"class.sat::literal", i32, i32, i32, i64, i8, i32, i8, i32 }
%"class.sat::ext_use_list" = type { %class.vector.2 }
%class.vector.2 = type { ptr }
%class.vector.14 = type { ptr }
%class.svector.13 = type { %class.vector.14 }

; Function Attrs: mustprogress nounwind uwtable
define linkonce_odr hidden noundef i64 @_ZN3sat15constraint_base8ext_sizeEv() #6 comdat align 2 {
  ret i64 8
}

; Function Attrs: mustprogress nounwind uwtable
define linkonce_odr hidden noundef nonnull align 8 dereferenceable(8) ptr @_ZN6vectorI7svectorImjELb1EjEixEj(ptr noundef nonnull align 8 dereferenceable(8) %0, i32 noundef %1) #6 comdat align 2 {
  %3 = alloca ptr, align 8
  %4 = alloca i32, align 4
  store ptr %0, ptr %3, align 8, !tbaa !100
  store i32 %1, ptr %4, align 4, !tbaa !8
  %5 = load ptr, ptr %3, align 8
  %6 = getelementptr inbounds nuw %class.vector.2, ptr %5, i32 0, i32 0
  %7 = load ptr, ptr %6, align 8, !tbaa !102
  %8 = load i32, ptr %4, align 4, !tbaa !8
  %9 = zext i32 %8 to i64
  %10 = getelementptr inbounds nuw %class.svector.13, ptr %7, i64 %9
  ret ptr %10
}

; Function Attrs: mustprogress nounwind uwtable
define linkonce_odr hidden noundef i32 @_ZNK3sat7literal5indexEv(ptr noundef nonnull align 4 dereferenceable(4) %0) #6 comdat align 2 {
  %2 = alloca ptr, align 8
  store ptr %0, ptr %2, align 8, !tbaa !42
  %3 = load ptr, ptr %2, align 8
  %4 = getelementptr inbounds nuw %"class.sat::literal", ptr %3, i32 0, i32 0
  %5 = load i32, ptr %4, align 4, !tbaa !43
  ret i32 %5
}

; Function Attrs: mustprogress nounwind uwtable
define linkonce_odr hidden noundef ptr @_ZN3sat15constraint_base12mem2base_ptrEPKv(ptr noundef %0) #6 comdat align 2 {
  %2 = alloca ptr, align 8
  store ptr %0, ptr %2, align 8, !tbaa !93
  %3 = load ptr, ptr %2, align 8, !tbaa !93
  %4 = call noundef i64 @_ZN3sat15constraint_base8ext_sizeEv()
  %5 = sub i64 0, %4
  %6 = getelementptr inbounds i8, ptr %3, i64 %5
  ret ptr %6
}

; Function Attrs: mustprogress uwtable
define linkonce_odr hidden noundef nonnull align 8 dereferenceable(8) ptr @_ZN6vectorImLb0EjE9push_backERKm(ptr noundef nonnull align 8 dereferenceable(8) %0, ptr noundef nonnull align 8 dereferenceable(8) %1) #4 comdat align 2 {
  %3 = alloca ptr, align 8
  %4 = alloca ptr, align 8
  store ptr %0, ptr %3, align 8, !tbaa !94
  store ptr %1, ptr %4, align 8, !tbaa !96
  %5 = load ptr, ptr %3, align 8
  %6 = getelementptr inbounds nuw %class.vector.14, ptr %5, i32 0, i32 0
  %7 = load ptr, ptr %6, align 8, !tbaa !98
  %8 = icmp eq ptr %7, null
  br i1 %8, label %19, label %9

9:                                                ; preds = %2
  %10 = getelementptr inbounds nuw %class.vector.14, ptr %5, i32 0, i32 0
  %11 = load ptr, ptr %10, align 8, !tbaa !98
  %12 = getelementptr inbounds i32, ptr %11, i64 -1
  %13 = load i32, ptr %12, align 4, !tbaa !8
  %14 = getelementptr inbounds nuw %class.vector.14, ptr %5, i32 0, i32 0
  %15 = load ptr, ptr %14, align 8, !tbaa !98
  %16 = getelementptr inbounds i32, ptr %15, i64 -2
  %17 = load i32, ptr %16, align 4, !tbaa !8
  %18 = icmp eq i32 %13, %17
  br i1 %18, label %19, label %20

19:                                               ; preds = %9, %2
  call void @_ZN6vectorImLb0EjE13expand_vectorEv(ptr noundef nonnull align 8 dereferenceable(8) %5)
  br label %20

20:                                               ; preds = %19, %9
  %21 = getelementptr inbounds nuw %class.vector.14, ptr %5, i32 0, i32 0
  %22 = load ptr, ptr %21, align 8, !tbaa !98
  %23 = getelementptr inbounds nuw %class.vector.14, ptr %5, i32 0, i32 0
  %24 = load ptr, ptr %23, align 8, !tbaa !98
  %25 = getelementptr inbounds i32, ptr %24, i64 -1
  %26 = load i32, ptr %25, align 4, !tbaa !8
  %27 = zext i32 %26 to i64
  %28 = getelementptr inbounds nuw i64, ptr %22, i64 %27
  %29 = load ptr, ptr %4, align 8, !tbaa !96
  %30 = load i64, ptr %29, align 8, !tbaa !26
  store i64 %30, ptr %28, align 8, !tbaa !26
  %31 = getelementptr inbounds nuw %class.vector.14, ptr %5, i32 0, i32 0
  %32 = load ptr, ptr %31, align 8, !tbaa !98
  %33 = getelementptr inbounds i32, ptr %32, i64 -1
  %34 = load i32, ptr %33, align 4, !tbaa !8
  %35 = add i32 %34, 1
  store i32 %35, ptr %33, align 4, !tbaa !8
  ret ptr %5
}

; Function Attrs: mustprogress uwtable
define linkonce_odr hidden noundef nonnull align 8 dereferenceable(8) ptr @_ZN3sat12ext_use_list3getENS_7literalE(ptr noundef nonnull align 8 dereferenceable(8) %0, i32 %1) #4 comdat align 2 {
  %3 = alloca %"class.sat::literal", align 4
  %4 = alloca ptr, align 8
  %5 = getelementptr inbounds nuw %"class.sat::literal", ptr %3, i32 0, i32 0
  store i32 %1, ptr %5, align 4
  store ptr %0, ptr %4, align 8, !tbaa !84
  %6 = load ptr, ptr %4, align 8
  %7 = getelementptr inbounds nuw %"class.sat::ext_use_list", ptr %6, i32 0, i32 0
  %8 = call noundef i32 @_ZNK3sat7literal5indexEv(ptr noundef nonnull align 4 dereferenceable(4) %3)
  %9 = call noundef nonnull align 8 dereferenceable(8) ptr @_ZN6vectorI7svectorImjELb1EjEixEj(ptr noundef nonnull align 8 dereferenceable(8) %7, i32 noundef %8)
  ret ptr %9
}

; Function Attrs: mustprogress uwtable
define linkonce_odr hidden noundef i64 @_ZN3sat15constraint_base8mem2baseEPKv(ptr noundef %0) #4 comdat align 2 {
  %2 = alloca ptr, align 8
  store ptr %0, ptr %2, align 8, !tbaa !93
  %3 = load ptr, ptr %2, align 8, !tbaa !93
  %4 = call noundef ptr @_ZN3sat15constraint_base12mem2base_ptrEPKv(ptr noundef %3)
  %5 = ptrtoint ptr %4 to i64
  ret i64 %5
}

; Function Attrs: mustprogress uwtable
define linkonce_odr hidden void @_ZN3sat12ext_use_list6insertENS_7literalEm(ptr noundef nonnull align 8 dereferenceable(8) %0, i32 %1, i64 noundef %2) #4 comdat align 2 {
  %4 = alloca %"class.sat::literal", align 4
  %5 = alloca ptr, align 8
  %6 = alloca i64, align 8
  %7 = alloca %"class.sat::literal", align 4
  %8 = getelementptr inbounds nuw %"class.sat::literal", ptr %4, i32 0, i32 0
  store i32 %1, ptr %8, align 4
  store ptr %0, ptr %5, align 8, !tbaa !84
  store i64 %2, ptr %6, align 8, !tbaa !26
  %9 = load ptr, ptr %5, align 8
  call void @llvm.memcpy.p0.p0.i64(ptr align 4 %7, ptr align 4 %4, i64 4, i1 false), !tbaa.struct !12
  %10 = getelementptr inbounds nuw %"class.sat::literal", ptr %7, i32 0, i32 0
  %11 = load i32, ptr %10, align 4
  %12 = call noundef nonnull align 8 dereferenceable(8) ptr @_ZN3sat12ext_use_list3getENS_7literalE(ptr noundef nonnull align 8 dereferenceable(8) %9, i32 %11)
  %13 = call noundef nonnull align 8 dereferenceable(8) ptr @_ZN6vectorImLb0EjE9push_backERKm(ptr noundef nonnull align 8 dereferenceable(8) %12, ptr noundef nonnull align 8 dereferenceable(8) %6)
  ret void
}

; Function Attrs: mustprogress nounwind uwtable
define linkonce_odr hidden noundef ptr @_ZNK2pb4card3endEv(ptr noundef nonnull align 8 dereferenceable(64) %0) #6 comdat align 2 {
  %2 = alloca ptr, align 8
  store ptr %0, ptr %2, align 8, !tbaa !3
  %3 = load ptr, ptr %2, align 8
  %4 = getelementptr inbounds nuw %"class.pb::card", ptr %3, i32 0, i32 1
  %5 = getelementptr inbounds [0 x %"class.sat::literal"], ptr %4, i64 0, i64 0
  %6 = getelementptr inbounds nuw %"class.pb::constraint", ptr %3, i32 0, i32 7
  %7 = load i32, ptr %6, align 8, !tbaa !35
  %8 = zext i32 %7 to i64
  %9 = getelementptr inbounds nuw %"class.sat::literal", ptr %5, i64 %8
  ret ptr %9
}

; Function Attrs: mustprogress nounwind uwtable
define linkonce_odr hidden noundef ptr @_ZNK2pb4card5beginEv(ptr noundef nonnull align 8 dereferenceable(64) %0) #6 comdat align 2 {
  %2 = alloca ptr, align 8
  store ptr %0, ptr %2, align 8, !tbaa !3
  %3 = load ptr, ptr %2, align 8
  %4 = getelementptr inbounds nuw %"class.pb::card", ptr %3, i32 0, i32 1
  %5 = getelementptr inbounds [0 x %"class.sat::literal"], ptr %4, i64 0, i64 0
  ret ptr %5
}

; Function Attrs: mustprogress uwtable
define linkonce_odr hidden noundef i64 @_ZNK2pb10constraint6cindexEv(ptr noundef nonnull align 8 dereferenceable(64) %0) #4 comdat align 2 {
  %2 = alloca ptr, align 8
  store ptr %0, ptr %2, align 8, !tbaa !22
  %3 = load ptr, ptr %2, align 8
  %4 = call noundef i64 @_ZN3sat15constraint_base8mem2baseEPKv(ptr noundef %3)
  ret i64 %4
}

; Function Attrs: mustprogress uwtable
define hidden void @_ZNK2pb4card13init_use_listERN3sat12ext_use_listE(ptr noundef nonnull align 8 dereferenceable(64) %0, ptr noundef nonnull align 8 dereferenceable(8) %1) unnamed_addr #4 align 2 {
  %3 = alloca ptr, align 8
  %4 = alloca ptr, align 8
  %5 = alloca i64, align 8
  %6 = alloca ptr, align 8
  %7 = alloca ptr, align 8
  %8 = alloca ptr, align 8
  %9 = alloca %"class.sat::literal", align 4
  %10 = alloca %"class.sat::literal", align 4
  store ptr %0, ptr %3, align 8, !tbaa !3
  store ptr %1, ptr %4, align 8, !tbaa !84
  %11 = load ptr, ptr %3, align 8
  call void @llvm.lifetime.start.p0(i64 8, ptr %5) #3
  %12 = call noundef i64 @_ZNK2pb10constraint6cindexEv(ptr noundef nonnull align 8 dereferenceable(64) %11)
  store i64 %12, ptr %5, align 8, !tbaa !26
  call void @llvm.lifetime.start.p0(i64 8, ptr %6) #3
  store ptr %11, ptr %6, align 8, !tbaa !3
  call void @llvm.lifetime.start.p0(i64 8, ptr %7) #3
  %13 = load ptr, ptr %6, align 8, !tbaa !3
  %14 = call noundef ptr @_ZNK2pb4card5beginEv(ptr noundef nonnull align 8 dereferenceable(64) %13)
  store ptr %14, ptr %7, align 8, !tbaa !42
  call void @llvm.lifetime.start.p0(i64 8, ptr %8) #3
  %15 = load ptr, ptr %6, align 8, !tbaa !3
  %16 = call noundef ptr @_ZNK2pb4card3endEv(ptr noundef nonnull align 8 dereferenceable(64) %15)
  store ptr %16, ptr %8, align 8, !tbaa !42
  br label %17

17:                                               ; preds = %28, %2
  %18 = load ptr, ptr %7, align 8, !tbaa !42
  %19 = load ptr, ptr %8, align 8, !tbaa !42
  %20 = icmp ne ptr %18, %19
  br i1 %20, label %22, label %21

21:                                               ; preds = %17
  call void @llvm.lifetime.end.p0(i64 8, ptr %8) #3
  call void @llvm.lifetime.end.p0(i64 8, ptr %7) #3
  call void @llvm.lifetime.end.p0(i64 8, ptr %6) #3
  br label %31

22:                                               ; preds = %17
  call void @llvm.lifetime.start.p0(i64 4, ptr %9) #3
  %23 = load ptr, ptr %7, align 8, !tbaa !42
  call void @llvm.memcpy.p0.p0.i64(ptr align 4 %9, ptr align 4 %23, i64 4, i1 false), !tbaa.struct !12
  %24 = load ptr, ptr %4, align 8, !tbaa !84
  call void @llvm.memcpy.p0.p0.i64(ptr align 4 %10, ptr align 4 %9, i64 4, i1 false), !tbaa.struct !12
  %25 = load i64, ptr %5, align 8, !tbaa !26
  %26 = getelementptr inbounds nuw %"class.sat::literal", ptr %10, i32 0, i32 0
  %27 = load i32, ptr %26, align 4
  call void @_ZN3sat12ext_use_list6insertENS_7literalEm(ptr noundef nonnull align 8 dereferenceable(8) %24, i32 %27, i64 noundef %25)
  call void @llvm.lifetime.end.p0(i64 4, ptr %9) #3
  br label %28

28:                                               ; preds = %22
  %29 = load ptr, ptr %7, align 8, !tbaa !42
  %30 = getelementptr inbounds nuw %"class.sat::literal", ptr %29, i32 1
  store ptr %30, ptr %7, align 8, !tbaa !42
  br label %17

31:                                               ; preds = %21
  call void @llvm.lifetime.end.p0(i64 8, ptr %5) #3
  ret void
}